; Function Attrs: nounwind uwtable
define internal void @engineDispose(ptr readnone captures(none) %0, ptr noundef %1) #1 {
  %3 = getelementptr inbounds nuw i8, ptr %1, i64 16
  %4 = load ptr, ptr %3, align 8, !tbaa !5
  tail call void @freeClient(ptr noundef %4) #12
  %5 = load ptr, ptr %1, align 8, !tbaa !13
  tail call void @sdsfree(ptr noundef %5) #12
  %6 = getelementptr inbounds nuw i8, ptr %1, i64 8
  %7 = load ptr, ptr %6, align 8, !tbaa !14
  %8 = getelementptr inbounds nuw i8, ptr %7, i64 56
  %9 = load ptr, ptr %8, align 8, !tbaa !15
  %10 = load ptr, ptr %7, align 8, !tbaa !17
  tail call void %9(ptr noundef %10) #12
  %11 = load ptr, ptr %6, align 8, !tbaa !14
  tail call void @zfree(ptr noundef %11) #12
  tail call void @zfree(ptr noundef nonnull %1) #12
  ret void
}